(lp0
S'N'
p1
aS'L-Deltoid(uV)'
p2
aS'L-Tricep(uV)'
p3
aS'L-Bicep(uV)'
p4
aS'L-Flex(uV)'
p5
aS'L-Ex(uV)'
p6
aS'R-Deltoid(uV)'
p7
aS'R-Tricep(uV)'
p8
aS'R-Bicep(uV)'
p9
aS'R-Flex(uV)'
p10
aS'R-Ex(uV)'
p11
a.